; Function Attrs: mustprogress uwtable
define noundef ptr @_Z8get_estrPSt6vectorI9t_inpfileSaIS0_EEPKcS5_(ptr noundef %0, ptr noundef %1, ptr noundef %2) local_unnamed_addr #0 personality ptr @__gxx_personality_v0 {
  %4 = tail call noundef i32 @_Z8get_einpPSt6vectorI9t_inpfileSaIS0_EEPKc(ptr noundef %0, ptr noundef %1)
  %5 = icmp eq i32 %4, -1
  br i1 %5, label %6, label %17

6:                                                ; preds = %3
  %.not = icmp eq ptr %2, null
  %7 = getelementptr inbounds nuw i8, ptr %0, i64 8
  %8 = load ptr, ptr %7, align 8, !tbaa !143
  %9 = getelementptr inbounds i8, ptr %8, i64 -40
  %10 = getelementptr inbounds i8, ptr %8, i64 -32
  br i1 %.not, label %15, label %11

11:                                               ; preds = %6
  %12 = load i64, ptr %10, align 8, !tbaa !21
  %13 = tail call noundef i64 @strlen(ptr noundef nonnull dereferenceable(1) %2) #23
  %14 = tail call noundef nonnull align 8 dereferenceable(32) ptr @_ZNSt7__cxx1112basic_stringIcSt11char_traitsIcESaIcEE10_M_replaceEmmPKcm(ptr noundef nonnull align 8 dereferenceable(32) %9, i64 noundef 0, i64 noundef %12, ptr noundef nonnull %2, i64 noundef %13)
  br label %22

15:                                               ; preds = %6
  store i64 0, ptr %10, align 8, !tbaa !21
  %16 = load ptr, ptr %9, align 8, !tbaa !15
  store i8 0, ptr %16, align 1, !tbaa !24
  br label %22

17:                                               ; preds = %3
  %18 = sext i32 %4 to i64
  %19 = load ptr, ptr %0, align 8, !tbaa !36
  %20 = getelementptr inbounds nuw %struct.t_inpfile, ptr %19, i64 %18, i32 6
  %21 = load ptr, ptr %20, align 8, !tbaa !15
  br label %22

22:                                               ; preds = %11, %15, %17
  %.0 = phi ptr [ %21, %17 ], [ null, %15 ], [ %2, %11 ]
  ret ptr %.0
}